; Function Attrs: mustprogress nounwind uwtable
define internal void @"_ZN2rc3SeqINS_10ShrinkableIcEEE7SeqImplINS_3seq6detail6MapSeqIZNKS_10shrinkable6detail13MapShrinkableISt5tupleIJhEEZNS_3gen5applyIZNS_13storePathCharEvE3$_0JhEEENS_3GenINSt13invoke_resultIT_JDpT0_EE4typeEEEOSI_DpNSG_ISJ_EEEUlOSC_E_E7shrinksEvEUlONS1_ISC_EEE_SU_EEED0Ev"(ptr noundef nonnull align 8 dereferenceable(24) %0) unnamed_addr #5 align 2 {
  store ptr getelementptr inbounds ({ [6 x ptr] }, ptr @"_ZTVN2rc3SeqINS_10ShrinkableIcEEE7SeqImplINS_3seq6detail6MapSeqIZNKS_10shrinkable6detail13MapShrinkableISt5tupleIJhEEZNS_3gen5applyIZNS_13storePathCharEvE3$_0JhEEENS_3GenINSt13invoke_resultIT_JDpT0_EE4typeEEEOSI_DpNSG_ISJ_EEEUlOSC_E_E7shrinksEvEUlONS1_ISC_EEE_SU_EEEE", i64 0, i32 0, i64 2), ptr %0, align 8
  %2 = getelementptr inbounds i8, ptr %0, i64 16
  %3 = load ptr, ptr %2, align 8
  %.not.i.i.i.i = icmp eq ptr %3, null
  br i1 %.not.i.i.i.i, label %"_ZN2rc3SeqINS_10ShrinkableIcEEE7SeqImplINS_3seq6detail6MapSeqIZNKS_10shrinkable6detail13MapShrinkableISt5tupleIJhEEZNS_3gen5applyIZNS_13storePathCharEvE3$_0JhEEENS_3GenINSt13invoke_resultIT_JDpT0_EE4typeEEEOSI_DpNSG_ISJ_EEEUlOSC_E_E7shrinksEvEUlONS1_ISC_EEE_SU_EEED2Ev.exit", label %_ZNKSt14default_deleteIN2rc3SeqINS0_10ShrinkableISt5tupleIJhEEEEE8ISeqImplEEclEPS7_.exit.i.i.i.i

_ZNKSt14default_deleteIN2rc3SeqINS0_10ShrinkableISt5tupleIJhEEEEE8ISeqImplEEclEPS7_.exit.i.i.i.i: ; preds = %1
  %4 = load ptr, ptr %3, align 8
  %5 = getelementptr inbounds i8, ptr %4, i64 24
  %6 = load ptr, ptr %5, align 8
  tail call void %6(ptr noundef nonnull align 8 dereferenceable(8) %3) #21
  br label %"_ZN2rc3SeqINS_10ShrinkableIcEEE7SeqImplINS_3seq6detail6MapSeqIZNKS_10shrinkable6detail13MapShrinkableISt5tupleIJhEEZNS_3gen5applyIZNS_13storePathCharEvE3$_0JhEEENS_3GenINSt13invoke_resultIT_JDpT0_EE4typeEEEOSI_DpNSG_ISJ_EEEUlOSC_E_E7shrinksEvEUlONS1_ISC_EEE_SU_EEED2Ev.exit"

"_ZN2rc3SeqINS_10ShrinkableIcEEE7SeqImplINS_3seq6detail6MapSeqIZNKS_10shrinkable6detail13MapShrinkableISt5tupleIJhEEZNS_3gen5applyIZNS_13storePathCharEvE3$_0JhEEENS_3GenINSt13invoke_resultIT_JDpT0_EE4typeEEEOSI_DpNSG_ISJ_EEEUlOSC_E_E7shrinksEvEUlONS1_ISC_EEE_SU_EEED2Ev.exit": ; preds = %1, %_ZNKSt14default_deleteIN2rc3SeqINS0_10ShrinkableISt5tupleIJhEEEEE8ISeqImplEEclEPS7_.exit.i.i.i.i
  tail call void @_ZdlPv(ptr noundef nonnull %0) #23
  ret void
}